; Function Attrs: nounwind uwtable
define noalias nonnull ptr @l_Lake_instEmptyCollectionInputFileConfig(ptr noundef %0) local_unnamed_addr #1 {
  %2 = load ptr, ptr @l_Lake_InputFileConfig_path___proj___elambda__1___closed__1, align 8, !tbaa !4
  %3 = tail call ptr @l_Lean_Name_toString(ptr noundef %0, i8 noundef zeroext 0, ptr noundef %2) #7
  tail call void @lean_inc_heartbeat() #7
  %4 = tail call noalias ptr @mi_malloc_small(i64 noundef 24) #7
  %5 = icmp eq ptr %4, null
  br i1 %5, label %6, label %lean_alloc_ctor.exit

6:                                                ; preds = %1
  tail call void @lean_internal_panic_out_of_memory() #8
  unreachable

lean_alloc_ctor.exit:                             ; preds = %1
  %7 = getelementptr inbounds nuw i8, ptr %4, i64 4
  %8 = getelementptr inbounds nuw i8, ptr %4, i64 16
  store i64 0, ptr %8, align 8, !tbaa !13
  store i32 1, ptr %4, align 4, !tbaa !8
  store i32 65560, ptr %7, align 4
  %9 = getelementptr inbounds nuw i8, ptr %4, i64 8
  store ptr %3, ptr %9, align 8, !tbaa !4
  ret ptr %4
}